target datalayout = "e-m:e-p270:32:32-p271:32:32-p272:64:64-i64:64-i128:128-f80:128-n8:16:32:64-S128"
target triple = "x86_64-pc-linux-gnu"

%struct.SwsSlice = type { i32, i32, i32, i32, i32, i32, [4 x %struct.SwsPlane] }
%struct.SwsPlane = type { i32, i32, i32, ptr, ptr }

; Function Attrs: nounwind uwtable
define i32 @ff_init_slice_from_src(ptr noundef %0, ptr noundef %1, ptr noundef %2, i32 noundef %3, i32 noundef %4, i32 noundef %5, i32 noundef %6, i32 noundef %7, i32 noundef %8) #0 {
  %10 = alloca ptr, align 8
  %11 = alloca ptr, align 8
  %12 = alloca ptr, align 8
  %13 = alloca i32, align 4
  %14 = alloca i32, align 4
  %15 = alloca i32, align 4
  %16 = alloca i32, align 4
  %17 = alloca i32, align 4
  %18 = alloca i32, align 4
  %19 = alloca i32, align 4
  %20 = alloca [4 x i32], align 16
  %21 = alloca [4 x i32], align 16
  %22 = alloca ptr, align 8
  %23 = alloca i32, align 4
  %24 = alloca i32, align 4
  %25 = alloca i32, align 4
  %26 = alloca i32, align 4
  %27 = alloca i32, align 4
  store ptr %0, ptr %10, align 8, !tbaa !4
  store ptr %1, ptr %11, align 8, !tbaa !20
  store ptr %2, ptr %12, align 8, !tbaa !21
  store i32 %3, ptr %13, align 4, !tbaa !9
  store i32 %4, ptr %14, align 4, !tbaa !9
  store i32 %5, ptr %15, align 4, !tbaa !9
  store i32 %6, ptr %16, align 4, !tbaa !9
  store i32 %7, ptr %17, align 4, !tbaa !9
  store i32 %8, ptr %18, align 4, !tbaa !9
  call void @llvm.lifetime.start.p0(i64 4, ptr %19) #7
  store i32 0, ptr %19, align 4, !tbaa !9
  call void @llvm.lifetime.start.p0(i64 16, ptr %20) #7
  %28 = load i32, ptr %14, align 4, !tbaa !9
  store i32 %28, ptr %20, align 4, !tbaa !9
  %29 = getelementptr inbounds i32, ptr %20, i64 1
  %30 = load i32, ptr %16, align 4, !tbaa !9
  store i32 %30, ptr %29, align 4, !tbaa !9
  %31 = getelementptr inbounds i32, ptr %20, i64 2
  %32 = load i32, ptr %16, align 4, !tbaa !9
  store i32 %32, ptr %31, align 4, !tbaa !9
  %33 = getelementptr inbounds i32, ptr %20, i64 3
  %34 = load i32, ptr %14, align 4, !tbaa !9
  store i32 %34, ptr %33, align 4, !tbaa !9
  call void @llvm.lifetime.start.p0(i64 16, ptr %21) #7
  %35 = load i32, ptr %14, align 4, !tbaa !9
  %36 = load i32, ptr %15, align 4, !tbaa !9
  %37 = add nsw i32 %35, %36
  store i32 %37, ptr %21, align 4, !tbaa !9
  %38 = getelementptr inbounds i32, ptr %21, i64 1
  %39 = load i32, ptr %16, align 4, !tbaa !9
  %40 = load i32, ptr %17, align 4, !tbaa !9
  %41 = add nsw i32 %39, %40
  store i32 %41, ptr %38, align 4, !tbaa !9
  %42 = getelementptr inbounds i32, ptr %21, i64 2
  %43 = load i32, ptr %16, align 4, !tbaa !9
  %44 = load i32, ptr %17, align 4, !tbaa !9
  %45 = add nsw i32 %43, %44
  store i32 %45, ptr %42, align 4, !tbaa !9
  %46 = getelementptr inbounds i32, ptr %21, i64 3
  %47 = load i32, ptr %14, align 4, !tbaa !9
  %48 = load i32, ptr %15, align 4, !tbaa !9
  %49 = add nsw i32 %47, %48
  store i32 %49, ptr %46, align 4, !tbaa !9
  %50 = load i32, ptr %13, align 4, !tbaa !9
  %51 = load ptr, ptr %10, align 8, !tbaa !4
  %52 = getelementptr inbounds nuw %struct.SwsSlice, ptr %51, i32 0, i32 0
  store i32 %50, ptr %52, align 8, !tbaa !23
  store i32 0, ptr %19, align 4, !tbaa !9
  br label %53

53:                                               ; preds = %249, %9
  %54 = load i32, ptr %19, align 4, !tbaa !9
  %55 = icmp slt i32 %54, 4
  br i1 %55, label %56, label %63

56:                                               ; preds = %53
  %57 = load ptr, ptr %11, align 8, !tbaa !20
  %58 = load i32, ptr %19, align 4, !tbaa !9
  %59 = sext i32 %58 to i64
  %60 = getelementptr inbounds ptr, ptr %57, i64 %59
  %61 = load ptr, ptr %60, align 8, !tbaa !25
  %62 = icmp ne ptr %61, null
  br label %63

63:                                               ; preds = %56, %53
  %64 = phi i1 [ false, %53 ], [ %62, %56 ]
  br i1 %64, label %65, label %252

65:                                               ; preds = %63
  call void @llvm.lifetime.start.p0(i64 8, ptr %22) #7
  %66 = load ptr, ptr %11, align 8, !tbaa !20
  %67 = load i32, ptr %19, align 4, !tbaa !9
  %68 = sext i32 %67 to i64
  %69 = getelementptr inbounds ptr, ptr %66, i64 %68
  %70 = load ptr, ptr %69, align 8, !tbaa !25
  %71 = load i32, ptr %18, align 4, !tbaa !9
  %72 = icmp ne i32 %71, 0
  br i1 %72, label %73, label %74

73:                                               ; preds = %65
  br label %79

74:                                               ; preds = %65
  %75 = load i32, ptr %19, align 4, !tbaa !9
  %76 = sext i32 %75 to i64
  %77 = getelementptr inbounds [4 x i32], ptr %20, i64 0, i64 %76
  %78 = load i32, ptr %77, align 4, !tbaa !9
  br label %79

79:                                               ; preds = %74, %73
  %80 = phi i32 [ 0, %73 ], [ %78, %74 ]
  %81 = load ptr, ptr %12, align 8, !tbaa !21
  %82 = load i32, ptr %19, align 4, !tbaa !9
  %83 = sext i32 %82 to i64
  %84 = getelementptr inbounds i32, ptr %81, i64 %83
  %85 = load i32, ptr %84, align 4, !tbaa !9
  %86 = mul nsw i32 %80, %85
  %87 = sext i32 %86 to i64
  %88 = getelementptr inbounds i8, ptr %70, i64 %87
  store ptr %88, ptr %22, align 8, !tbaa !25
  call void @llvm.lifetime.start.p0(i64 4, ptr %23) #7
  call void @llvm.lifetime.start.p0(i64 4, ptr %24) #7
  %89 = load ptr, ptr %10, align 8, !tbaa !4
  %90 = getelementptr inbounds nuw %struct.SwsSlice, ptr %89, i32 0, i32 6
  %91 = load i32, ptr %19, align 4, !tbaa !9
  %92 = sext i32 %91 to i64
  %93 = getelementptr inbounds [4 x %struct.SwsPlane], ptr %90, i64 0, i64 %92
  %94 = getelementptr inbounds nuw %struct.SwsPlane, ptr %93, i32 0, i32 1
  %95 = load i32, ptr %94, align 4, !tbaa !15
  store i32 %95, ptr %24, align 4, !tbaa !9
  call void @llvm.lifetime.start.p0(i64 4, ptr %25) #7
  %96 = load ptr, ptr %10, align 8, !tbaa !4
  %97 = getelementptr inbounds nuw %struct.SwsSlice, ptr %96, i32 0, i32 6
  %98 = load i32, ptr %19, align 4, !tbaa !9
  %99 = sext i32 %98 to i64
  %100 = getelementptr inbounds [4 x %struct.SwsPlane], ptr %97, i64 0, i64 %99
  %101 = getelementptr inbounds nuw %struct.SwsPlane, ptr %100, i32 0, i32 0
  %102 = load i32, ptr %101, align 8, !tbaa !11
  store i32 %102, ptr %25, align 4, !tbaa !9
  call void @llvm.lifetime.start.p0(i64 4, ptr %26) #7
  %103 = load i32, ptr %19, align 4, !tbaa !9
  %104 = sext i32 %103 to i64
  %105 = getelementptr inbounds [4 x i32], ptr %21, i64 0, i64 %104
  %106 = load i32, ptr %105, align 4, !tbaa !9
  %107 = load i32, ptr %19, align 4, !tbaa !9
  %108 = sext i32 %107 to i64
  %109 = getelementptr inbounds [4 x i32], ptr %20, i64 0, i64 %108
  %110 = load i32, ptr %109, align 4, !tbaa !9
  %111 = sub nsw i32 %106, %110
  store i32 %111, ptr %26, align 4, !tbaa !9
  call void @llvm.lifetime.start.p0(i64 4, ptr %27) #7
  %112 = load i32, ptr %19, align 4, !tbaa !9
  %113 = sext i32 %112 to i64
  %114 = getelementptr inbounds [4 x i32], ptr %21, i64 0, i64 %113
  %115 = load i32, ptr %114, align 4, !tbaa !9
  %116 = load i32, ptr %24, align 4, !tbaa !9
  %117 = sub nsw i32 %115, %116
  store i32 %117, ptr %27, align 4, !tbaa !9
  %118 = load i32, ptr %19, align 4, !tbaa !9
  %119 = sext i32 %118 to i64
  %120 = getelementptr inbounds [4 x i32], ptr %20, i64 0, i64 %119
  %121 = load i32, ptr %120, align 4, !tbaa !9
  %122 = load i32, ptr %24, align 4, !tbaa !9
  %123 = icmp sge i32 %121, %122
  br i1 %123, label %124, label %192

124:                                              ; preds = %79
  %125 = load i32, ptr %25, align 4, !tbaa !9
  %126 = load i32, ptr %27, align 4, !tbaa !9
  %127 = icmp sge i32 %125, %126
  br i1 %127, label %128, label %192

128:                                              ; preds = %124
  %129 = load i32, ptr %27, align 4, !tbaa !9
  %130 = load ptr, ptr %10, align 8, !tbaa !4
  %131 = getelementptr inbounds nuw %struct.SwsSlice, ptr %130, i32 0, i32 6
  %132 = load i32, ptr %19, align 4, !tbaa !9
  %133 = sext i32 %132 to i64
  %134 = getelementptr inbounds [4 x %struct.SwsPlane], ptr %131, i64 0, i64 %133
  %135 = getelementptr inbounds nuw %struct.SwsPlane, ptr %134, i32 0, i32 2
  %136 = load i32, ptr %135, align 8, !tbaa !16
  %137 = icmp sgt i32 %129, %136
  br i1 %137, label %138, label %140

138:                                              ; preds = %128
  %139 = load i32, ptr %27, align 4, !tbaa !9
  br label %148

140:                                              ; preds = %128
  %141 = load ptr, ptr %10, align 8, !tbaa !4
  %142 = getelementptr inbounds nuw %struct.SwsSlice, ptr %141, i32 0, i32 6
  %143 = load i32, ptr %19, align 4, !tbaa !9
  %144 = sext i32 %143 to i64
  %145 = getelementptr inbounds [4 x %struct.SwsPlane], ptr %142, i64 0, i64 %144
  %146 = getelementptr inbounds nuw %struct.SwsPlane, ptr %145, i32 0, i32 2
  %147 = load i32, ptr %146, align 8, !tbaa !16
  br label %148

148:                                              ; preds = %140, %138
  %149 = phi i32 [ %139, %138 ], [ %147, %140 ]
  %150 = load ptr, ptr %10, align 8, !tbaa !4
  %151 = getelementptr inbounds nuw %struct.SwsSlice, ptr %150, i32 0, i32 6
  %152 = load i32, ptr %19, align 4, !tbaa !9
  %153 = sext i32 %152 to i64
  %154 = getelementptr inbounds [4 x %struct.SwsPlane], ptr %151, i64 0, i64 %153
  %155 = getelementptr inbounds nuw %struct.SwsPlane, ptr %154, i32 0, i32 2
  store i32 %149, ptr %155, align 8, !tbaa !16
  store i32 0, ptr %23, align 4, !tbaa !9
  br label %156

156:                                              ; preds = %188, %148
  %157 = load i32, ptr %23, align 4, !tbaa !9
  %158 = load i32, ptr %26, align 4, !tbaa !9
  %159 = icmp slt i32 %157, %158
  br i1 %159, label %160, label %191

160:                                              ; preds = %156
  %161 = load ptr, ptr %22, align 8, !tbaa !25
  %162 = load i32, ptr %23, align 4, !tbaa !9
  %163 = load ptr, ptr %12, align 8, !tbaa !21
  %164 = load i32, ptr %19, align 4, !tbaa !9
  %165 = sext i32 %164 to i64
  %166 = getelementptr inbounds i32, ptr %163, i64 %165
  %167 = load i32, ptr %166, align 4, !tbaa !9
  %168 = mul nsw i32 %162, %167
  %169 = sext i32 %168 to i64
  %170 = getelementptr inbounds i8, ptr %161, i64 %169
  %171 = load ptr, ptr %10, align 8, !tbaa !4
  %172 = getelementptr inbounds nuw %struct.SwsSlice, ptr %171, i32 0, i32 6
  %173 = load i32, ptr %19, align 4, !tbaa !9
  %174 = sext i32 %173 to i64
  %175 = getelementptr inbounds [4 x %struct.SwsPlane], ptr %172, i64 0, i64 %174
  %176 = getelementptr inbounds nuw %struct.SwsPlane, ptr %175, i32 0, i32 3
  %177 = load ptr, ptr %176, align 8, !tbaa !27
  %178 = load i32, ptr %19, align 4, !tbaa !9
  %179 = sext i32 %178 to i64
  %180 = getelementptr inbounds [4 x i32], ptr %20, i64 0, i64 %179
  %181 = load i32, ptr %180, align 4, !tbaa !9
  %182 = load i32, ptr %24, align 4, !tbaa !9
  %183 = sub nsw i32 %181, %182
  %184 = load i32, ptr %23, align 4, !tbaa !9
  %185 = add nsw i32 %183, %184
  %186 = sext i32 %185 to i64
  %187 = getelementptr inbounds ptr, ptr %177, i64 %186
  store ptr %170, ptr %187, align 8, !tbaa !25
  br label %188

188:                                              ; preds = %160
  %189 = load i32, ptr %23, align 4, !tbaa !9
  %190 = add nsw i32 %189, 1
  store i32 %190, ptr %23, align 4, !tbaa !9
  br label %156, !llvm.loop !28

191:                                              ; preds = %156
  br label %248

192:                                              ; preds = %124, %79
  %193 = load i32, ptr %19, align 4, !tbaa !9
  %194 = sext i32 %193 to i64
  %195 = getelementptr inbounds [4 x i32], ptr %20, i64 0, i64 %194
  %196 = load i32, ptr %195, align 4, !tbaa !9
  %197 = load ptr, ptr %10, align 8, !tbaa !4
  %198 = getelementptr inbounds nuw %struct.SwsSlice, ptr %197, i32 0, i32 6
  %199 = load i32, ptr %19, align 4, !tbaa !9
  %200 = sext i32 %199 to i64
  %201 = getelementptr inbounds [4 x %struct.SwsPlane], ptr %198, i64 0, i64 %200
  %202 = getelementptr inbounds nuw %struct.SwsPlane, ptr %201, i32 0, i32 1
  store i32 %196, ptr %202, align 4, !tbaa !15
  %203 = load i32, ptr %26, align 4, !tbaa !9
  %204 = load i32, ptr %25, align 4, !tbaa !9
  %205 = icmp sgt i32 %203, %204
  br i1 %205, label %206, label %208

206:                                              ; preds = %192
  %207 = load i32, ptr %25, align 4, !tbaa !9
  br label %210

208:                                              ; preds = %192
  %209 = load i32, ptr %26, align 4, !tbaa !9
  br label %210

210:                                              ; preds = %208, %206
  %211 = phi i32 [ %207, %206 ], [ %209, %208 ]
  store i32 %211, ptr %26, align 4, !tbaa !9
  %212 = load i32, ptr %26, align 4, !tbaa !9
  %213 = load ptr, ptr %10, align 8, !tbaa !4
  %214 = getelementptr inbounds nuw %struct.SwsSlice, ptr %213, i32 0, i32 6
  %215 = load i32, ptr %19, align 4, !tbaa !9
  %216 = sext i32 %215 to i64
  %217 = getelementptr inbounds [4 x %struct.SwsPlane], ptr %214, i64 0, i64 %216
  %218 = getelementptr inbounds nuw %struct.SwsPlane, ptr %217, i32 0, i32 2
  store i32 %212, ptr %218, align 8, !tbaa !16
  store i32 0, ptr %23, align 4, !tbaa !9
  br label %219

219:                                              ; preds = %244, %210
  %220 = load i32, ptr %23, align 4, !tbaa !9
  %221 = load i32, ptr %26, align 4, !tbaa !9
  %222 = icmp slt i32 %220, %221
  br i1 %222, label %223, label %247

223:                                              ; preds = %219
  %224 = load ptr, ptr %22, align 8, !tbaa !25
  %225 = load i32, ptr %23, align 4, !tbaa !9
  %226 = load ptr, ptr %12, align 8, !tbaa !21
  %227 = load i32, ptr %19, align 4, !tbaa !9
  %228 = sext i32 %227 to i64
  %229 = getelementptr inbounds i32, ptr %226, i64 %228
  %230 = load i32, ptr %229, align 4, !tbaa !9
  %231 = mul nsw i32 %225, %230
  %232 = sext i32 %231 to i64
  %233 = getelementptr inbounds i8, ptr %224, i64 %232
  %234 = load ptr, ptr %10, align 8, !tbaa !4
  %235 = getelementptr inbounds nuw %struct.SwsSlice, ptr %234, i32 0, i32 6
  %236 = load i32, ptr %19, align 4, !tbaa !9
  %237 = sext i32 %236 to i64
  %238 = getelementptr inbounds [4 x %struct.SwsPlane], ptr %235, i64 0, i64 %237
  %239 = getelementptr inbounds nuw %struct.SwsPlane, ptr %238, i32 0, i32 3
  %240 = load ptr, ptr %239, align 8, !tbaa !27
  %241 = load i32, ptr %23, align 4, !tbaa !9
  %242 = sext i32 %241 to i64
  %243 = getelementptr inbounds ptr, ptr %240, i64 %242
  store ptr %233, ptr %243, align 8, !tbaa !25
  br label %244

244:                                              ; preds = %223
  %245 = load i32, ptr %23, align 4, !tbaa !9
  %246 = add nsw i32 %245, 1
  store i32 %246, ptr %23, align 4, !tbaa !9
  br label %219, !llvm.loop !29

247:                                              ; preds = %219
  br label %248

248:                                              ; preds = %247, %191
  call void @llvm.lifetime.end.p0(i64 4, ptr %27) #7
  call void @llvm.lifetime.end.p0(i64 4, ptr %26) #7
  call void @llvm.lifetime.end.p0(i64 4, ptr %25) #7
  call void @llvm.lifetime.end.p0(i64 4, ptr %24) #7
  call void @llvm.lifetime.end.p0(i64 4, ptr %23) #7
  call void @llvm.lifetime.end.p0(i64 8, ptr %22) #7
  br label %249

249:                                              ; preds = %248
  %250 = load i32, ptr %19, align 4, !tbaa !9
  %251 = add nsw i32 %250, 1
  store i32 %251, ptr %19, align 4, !tbaa !9
  br label %53, !llvm.loop !30

252:                                              ; preds = %63
  call void @llvm.lifetime.end.p0(i64 16, ptr %21) #7
  call void @llvm.lifetime.end.p0(i64 16, ptr %20) #7
  call void @llvm.lifetime.end.p0(i64 4, ptr %19) #7
  ret i32 0
}