; Function Attrs: nofree norecurse nosync nounwind memory(write, argmem: readwrite, inaccessiblemem: none) uwtable
define noundef i32 @ff_init_slice_from_src(ptr noundef captures(none) initializes((0, 4)) %0, ptr noundef readonly captures(none) %1, ptr noundef readonly captures(none) %2, i32 noundef %3, i32 noundef %4, i32 noundef %5, i32 noundef %6, i32 noundef %7, i32 noundef %8) local_unnamed_addr #2 {
  %10 = alloca [4 x i32], align 16
  %11 = alloca [4 x i32], align 16
  call void @llvm.lifetime.start.p0(i64 16, ptr nonnull %10) #8
  store i32 %4, ptr %10, align 16, !tbaa !17
  %12 = getelementptr inbounds nuw i8, ptr %10, i64 4
  store i32 %6, ptr %12, align 4, !tbaa !17
  %13 = getelementptr inbounds nuw i8, ptr %10, i64 8
  store i32 %6, ptr %13, align 8, !tbaa !17
  %14 = getelementptr inbounds nuw i8, ptr %10, i64 12
  store i32 %4, ptr %14, align 4, !tbaa !17
  call void @llvm.lifetime.start.p0(i64 16, ptr nonnull %11) #8
  %15 = add nsw i32 %5, %4
  store i32 %15, ptr %11, align 16, !tbaa !17
  %16 = getelementptr inbounds nuw i8, ptr %11, i64 4
  %17 = add nsw i32 %7, %6
  store i32 %17, ptr %16, align 4, !tbaa !17
  %18 = getelementptr inbounds nuw i8, ptr %11, i64 8
  store i32 %17, ptr %18, align 8, !tbaa !17
  %19 = getelementptr inbounds nuw i8, ptr %11, i64 12
  store i32 %15, ptr %19, align 4, !tbaa !17
  store i32 %3, ptr %0, align 8, !tbaa !18
  %.not80 = icmp eq i32 %8, 0
  %20 = getelementptr inbounds nuw i8, ptr %0, i64 24
  br label %21

21:                                               ; preds = %9, %.loopexit
  %indvars.iv95 = phi i64 [ 0, %9 ], [ %indvars.iv.next96, %.loopexit ]
  %22 = getelementptr inbounds nuw ptr, ptr %1, i64 %indvars.iv95
  %23 = load ptr, ptr %22, align 8, !tbaa !20
  %.not = icmp eq ptr %23, null
  br i1 %.not, label %.critedge, label %24

24:                                               ; preds = %21
  %25 = getelementptr inbounds nuw [4 x i32], ptr %10, i64 0, i64 %indvars.iv95
  %26 = load i32, ptr %25, align 4, !tbaa !17
  %.100 = select i1 %.not80, i32 %26, i32 0
  %27 = getelementptr inbounds nuw i32, ptr %2, i64 %indvars.iv95
  %28 = load i32, ptr %27, align 4, !tbaa !17
  %29 = mul nsw i32 %28, %.100
  %30 = sext i32 %29 to i64
  %31 = getelementptr inbounds i8, ptr %23, i64 %30
  %32 = getelementptr inbounds nuw [4 x %struct.SwsPlane], ptr %20, i64 0, i64 %indvars.iv95
  %33 = getelementptr inbounds nuw i8, ptr %32, i64 4
  %34 = load i32, ptr %33, align 4, !tbaa !12
  %35 = load i32, ptr %32, align 8, !tbaa !4
  %36 = getelementptr inbounds nuw [4 x i32], ptr %11, i64 0, i64 %indvars.iv95
  %37 = load i32, ptr %36, align 4, !tbaa !17
  %38 = sub i32 %37, %26
  %39 = sub nsw i32 %37, %34
  %.not81 = icmp slt i32 %26, %34
  %.not82 = icmp slt i32 %35, %39
  %or.cond = select i1 %.not81, i1 true, i1 %.not82
  br i1 %or.cond, label %53, label %40

40:                                               ; preds = %24
  %41 = getelementptr inbounds nuw i8, ptr %32, i64 8
  %42 = load i32, ptr %41, align 8, !tbaa !13
  %. = tail call i32 @llvm.smax.i32(i32 %39, i32 %42)
  store i32 %., ptr %41, align 8, !tbaa !13
  %43 = icmp sgt i32 %38, 0
  br i1 %43, label %.lr.ph, label %.loopexit

.lr.ph:                                           ; preds = %40
  %44 = load i32, ptr %27, align 4, !tbaa !17
  %45 = getelementptr inbounds nuw i8, ptr %32, i64 16
  %46 = load ptr, ptr %45, align 8, !tbaa !22
  %47 = sub i32 %26, %34
  %48 = sext i32 %44 to i64
  %49 = sext i32 %47 to i64
  %wide.trip.count = zext nneg i32 %38 to i64
  %invariant.gep = getelementptr ptr, ptr %46, i64 %49
  br label %50

50:                                               ; preds = %.lr.ph, %50
  %indvars.iv = phi i64 [ 0, %.lr.ph ], [ %indvars.iv.next, %50 ]
  %51 = mul nsw i64 %indvars.iv, %48
  %52 = getelementptr inbounds i8, ptr %31, i64 %51
  %gep = getelementptr ptr, ptr %invariant.gep, i64 %indvars.iv
  store ptr %52, ptr %gep, align 8, !tbaa !20
  %indvars.iv.next = add nuw nsw i64 %indvars.iv, 1
  %exitcond.not = icmp eq i64 %indvars.iv.next, %wide.trip.count
  br i1 %exitcond.not, label %.loopexit, label %50, !llvm.loop !23

53:                                               ; preds = %24
  store i32 %26, ptr %33, align 4, !tbaa !12
  %54 = tail call i32 @llvm.smin.i32(i32 %38, i32 %35)
  %55 = getelementptr inbounds nuw i8, ptr %32, i64 8
  store i32 %54, ptr %55, align 8, !tbaa !13
  %56 = icmp sgt i32 %54, 0
  br i1 %56, label %.lr.ph86, label %.loopexit

.lr.ph86:                                         ; preds = %53
  %57 = load i32, ptr %27, align 4, !tbaa !17
  %58 = getelementptr inbounds nuw i8, ptr %32, i64 16
  %59 = load ptr, ptr %58, align 8, !tbaa !22
  %60 = sext i32 %57 to i64
  %wide.trip.count93 = zext nneg i32 %54 to i64
  br label %61

61:                                               ; preds = %.lr.ph86, %61
  %indvars.iv90 = phi i64 [ 0, %.lr.ph86 ], [ %indvars.iv.next91, %61 ]
  %62 = mul nsw i64 %indvars.iv90, %60
  %63 = getelementptr inbounds i8, ptr %31, i64 %62
  %64 = getelementptr inbounds nuw ptr, ptr %59, i64 %indvars.iv90
  store ptr %63, ptr %64, align 8, !tbaa !20
  %indvars.iv.next91 = add nuw nsw i64 %indvars.iv90, 1
  %exitcond94.not = icmp eq i64 %indvars.iv.next91, %wide.trip.count93
  br i1 %exitcond94.not, label %.loopexit, label %61, !llvm.loop !24

.loopexit:                                        ; preds = %50, %61, %40, %53
  %indvars.iv.next96 = add nuw nsw i64 %indvars.iv95, 1
  %exitcond98.not = icmp eq i64 %indvars.iv.next96, 4
  br i1 %exitcond98.not, label %.critedge, label %21, !llvm.loop !25

.critedge:                                        ; preds = %.loopexit, %21
  call void @llvm.lifetime.end.p0(i64 16, ptr nonnull %11) #8
  call void @llvm.lifetime.end.p0(i64 16, ptr nonnull %10) #8
  ret i32 0
}